; Function Attrs: mustprogress nofree norecurse nosync nounwind willreturn memory(read, inaccessiblemem: none) uwtable
define hidden noundef i32 @_ZNK6spacer11prop_solver9level_cntEv(ptr nocapture noundef nonnull readonly align 8 dereferenceable(156) %this) local_unnamed_addr #5 align 2 {
entry:
  %m_level_preds = getelementptr inbounds i8, ptr %this, i64 56
  %0 = load ptr, ptr %m_level_preds, align 8
  %cmp.i = icmp eq ptr %0, null
  br i1 %cmp.i, label %_ZNK6vectorIP9func_declLb0EjE4sizeEv.exit, label %if.end.i

if.end.i:                                         ; preds = %entry
  %arrayidx.i = getelementptr inbounds i8, ptr %0, i64 -4
  %1 = load i32, ptr %arrayidx.i, align 4
  br label %_ZNK6vectorIP9func_declLb0EjE4sizeEv.exit

_ZNK6vectorIP9func_declLb0EjE4sizeEv.exit:        ; preds = %entry, %if.end.i
  %retval.0.i = phi i32 [ %1, %if.end.i ], [ 0, %entry ]
  ret i32 %retval.0.i
}